target datalayout = "e-m:e-p270:32:32-p271:32:32-p272:64:64-i64:64-i128:128-f80:128-n8:16:32:64-S128"
target triple = "x86_64-pc-linux-gnu"

%struct.bp_creation_ts_t = type { %struct.bp_dtn_time_t, i64 }
%struct.bp_dtn_time_t = type { i64, %struct.nstime_t }
%struct.nstime_t = type { i64, i32 }
%struct.bp_eid_t = type { ptr, i64, %struct._address, ptr, ptr, ptr }
%struct._address = type { i32, i32, ptr, ptr }
%struct.bp_block_primary_t = type { ptr, i64, ptr, ptr, ptr, %struct.bp_creation_ts_t, ptr, ptr, i64, ptr, %struct.security_mark_t }
%struct.security_mark_t = type { ptr, ptr }

; Function Attrs: null_pointer_is_valid sspstrong uwtable
define void @bp_eid_free(ptr noundef %0) #2 {
  %2 = alloca ptr, align 8
  store ptr %0, ptr %2, align 8
  %3 = load ptr, ptr %2, align 8
  %4 = getelementptr inbounds nuw %struct.bp_eid_t, ptr %3, i32 0, i32 0
  %5 = load ptr, ptr %4, align 8
  %6 = load ptr, ptr %2, align 8
  %7 = getelementptr inbounds nuw %struct.bp_eid_t, ptr %6, i32 0, i32 2
  %8 = getelementptr inbounds nuw %struct._address, ptr %7, i32 0, i32 2
  %9 = load ptr, ptr %8, align 8
  call void @wmem_free(ptr noundef %5, ptr noundef %9)
  %10 = load ptr, ptr %2, align 8
  %11 = getelementptr inbounds nuw %struct.bp_eid_t, ptr %10, i32 0, i32 0
  %12 = load ptr, ptr %11, align 8
  %13 = load ptr, ptr %2, align 8
  %14 = getelementptr inbounds nuw %struct.bp_eid_t, ptr %13, i32 0, i32 3
  %15 = load ptr, ptr %14, align 8
  call void @wmem_free(ptr noundef %12, ptr noundef %15)
  %16 = load ptr, ptr %2, align 8
  %17 = getelementptr inbounds nuw %struct.bp_eid_t, ptr %16, i32 0, i32 0
  %18 = load ptr, ptr %17, align 8
  %19 = load ptr, ptr %2, align 8
  %20 = getelementptr inbounds nuw %struct.bp_eid_t, ptr %19, i32 0, i32 4
  %21 = load ptr, ptr %20, align 8
  call void @wmem_free(ptr noundef %18, ptr noundef %21)
  %22 = load ptr, ptr %2, align 8
  %23 = getelementptr inbounds nuw %struct.bp_eid_t, ptr %22, i32 0, i32 0
  %24 = load ptr, ptr %23, align 8
  %25 = load ptr, ptr %2, align 8
  %26 = getelementptr inbounds nuw %struct.bp_eid_t, ptr %25, i32 0, i32 5
  %27 = load ptr, ptr %26, align 8
  call void @wmem_free(ptr noundef %24, ptr noundef %27)
  %28 = load ptr, ptr %2, align 8
  %29 = getelementptr inbounds nuw %struct.bp_eid_t, ptr %28, i32 0, i32 0
  %30 = load ptr, ptr %29, align 8
  %31 = load ptr, ptr %2, align 8
  call void @wmem_free(ptr noundef %30, ptr noundef %31)
  ret void
}

; Function Attrs: null_pointer_is_valid sspstrong uwtable
define void @bp_block_primary_free(ptr noundef %0, ptr noundef %1) #2 {
  %3 = alloca ptr, align 8
  %4 = alloca ptr, align 8
  store ptr %0, ptr %3, align 8
  store ptr %1, ptr %4, align 8
  %5 = load ptr, ptr %4, align 8
  %6 = icmp ne ptr %5, null
  br i1 %6, label %8, label %7

7:                                                ; preds = %2
  br label %38

8:                                                ; preds = %2
  %9 = load ptr, ptr %4, align 8
  %10 = getelementptr inbounds nuw %struct.bp_block_primary_t, ptr %9, i32 0, i32 2
  %11 = load ptr, ptr %10, align 8
  call void @bp_eid_free(ptr noundef %11)
  %12 = load ptr, ptr %4, align 8
  %13 = getelementptr inbounds nuw %struct.bp_block_primary_t, ptr %12, i32 0, i32 3
  %14 = load ptr, ptr %13, align 8
  call void @bp_eid_free(ptr noundef %14)
  %15 = load ptr, ptr %4, align 8
  %16 = getelementptr inbounds nuw %struct.bp_block_primary_t, ptr %15, i32 0, i32 4
  %17 = load ptr, ptr %16, align 8
  call void @bp_eid_free(ptr noundef %17)
  %18 = load ptr, ptr %3, align 8
  %19 = load ptr, ptr %4, align 8
  %20 = getelementptr inbounds nuw %struct.bp_block_primary_t, ptr %19, i32 0, i32 6
  %21 = load ptr, ptr %20, align 8
  call void @wmem_free(ptr noundef %18, ptr noundef %21)
  %22 = load ptr, ptr %3, align 8
  %23 = load ptr, ptr %4, align 8
  %24 = getelementptr inbounds nuw %struct.bp_block_primary_t, ptr %23, i32 0, i32 7
  %25 = load ptr, ptr %24, align 8
  call void @wmem_free(ptr noundef %22, ptr noundef %25)
  %26 = load ptr, ptr %3, align 8
  %27 = load ptr, ptr %4, align 8
  %28 = getelementptr inbounds nuw %struct.bp_block_primary_t, ptr %27, i32 0, i32 10
  %29 = getelementptr inbounds nuw %struct.security_mark_t, ptr %28, i32 0, i32 0
  %30 = load ptr, ptr %29, align 8
  call void @wmem_free(ptr noundef %26, ptr noundef %30)
  %31 = load ptr, ptr %3, align 8
  %32 = load ptr, ptr %4, align 8
  %33 = getelementptr inbounds nuw %struct.bp_block_primary_t, ptr %32, i32 0, i32 10
  %34 = getelementptr inbounds nuw %struct.security_mark_t, ptr %33, i32 0, i32 1
  %35 = load ptr, ptr %34, align 8
  call void @wmem_free(ptr noundef %31, ptr noundef %35)
  %36 = load ptr, ptr %3, align 8
  %37 = load ptr, ptr %4, align 8
  call void @wmem_free(ptr noundef %36, ptr noundef %37)
  br label %38

38:                                               ; preds = %8, %7
  ret void
}