; Function Attrs: null_pointer_is_valid sspstrong uwtable
define void @bp_block_primary_free(ptr noundef %0, ptr noundef %1) local_unnamed_addr #2 {
  %.not = icmp eq ptr %1, null
  br i1 %.not, label %57, label %3

3:                                                ; preds = %2
  %4 = getelementptr inbounds nuw i8, ptr %1, i64 16
  %5 = load ptr, ptr %4, align 8
  %6 = load ptr, ptr %5, align 8
  %7 = getelementptr inbounds nuw i8, ptr %5, i64 24
  %8 = load ptr, ptr %7, align 8
  tail call void @wmem_free(ptr noundef %6, ptr noundef %8)
  %9 = load ptr, ptr %5, align 8
  %10 = getelementptr inbounds nuw i8, ptr %5, i64 40
  %11 = load ptr, ptr %10, align 8
  tail call void @wmem_free(ptr noundef %9, ptr noundef %11)
  %12 = load ptr, ptr %5, align 8
  %13 = getelementptr inbounds nuw i8, ptr %5, i64 48
  %14 = load ptr, ptr %13, align 8
  tail call void @wmem_free(ptr noundef %12, ptr noundef %14)
  %15 = load ptr, ptr %5, align 8
  %16 = getelementptr inbounds nuw i8, ptr %5, i64 56
  %17 = load ptr, ptr %16, align 8
  tail call void @wmem_free(ptr noundef %15, ptr noundef %17)
  %18 = load ptr, ptr %5, align 8
  tail call void @wmem_free(ptr noundef %18, ptr noundef %5)
  %19 = getelementptr inbounds nuw i8, ptr %1, i64 24
  %20 = load ptr, ptr %19, align 8
  %21 = load ptr, ptr %20, align 8
  %22 = getelementptr inbounds nuw i8, ptr %20, i64 24
  %23 = load ptr, ptr %22, align 8
  tail call void @wmem_free(ptr noundef %21, ptr noundef %23)
  %24 = load ptr, ptr %20, align 8
  %25 = getelementptr inbounds nuw i8, ptr %20, i64 40
  %26 = load ptr, ptr %25, align 8
  tail call void @wmem_free(ptr noundef %24, ptr noundef %26)
  %27 = load ptr, ptr %20, align 8
  %28 = getelementptr inbounds nuw i8, ptr %20, i64 48
  %29 = load ptr, ptr %28, align 8
  tail call void @wmem_free(ptr noundef %27, ptr noundef %29)
  %30 = load ptr, ptr %20, align 8
  %31 = getelementptr inbounds nuw i8, ptr %20, i64 56
  %32 = load ptr, ptr %31, align 8
  tail call void @wmem_free(ptr noundef %30, ptr noundef %32)
  %33 = load ptr, ptr %20, align 8
  tail call void @wmem_free(ptr noundef %33, ptr noundef %20)
  %34 = getelementptr inbounds nuw i8, ptr %1, i64 32
  %35 = load ptr, ptr %34, align 8
  %36 = load ptr, ptr %35, align 8
  %37 = getelementptr inbounds nuw i8, ptr %35, i64 24
  %38 = load ptr, ptr %37, align 8
  tail call void @wmem_free(ptr noundef %36, ptr noundef %38)
  %39 = load ptr, ptr %35, align 8
  %40 = getelementptr inbounds nuw i8, ptr %35, i64 40
  %41 = load ptr, ptr %40, align 8
  tail call void @wmem_free(ptr noundef %39, ptr noundef %41)
  %42 = load ptr, ptr %35, align 8
  %43 = getelementptr inbounds nuw i8, ptr %35, i64 48
  %44 = load ptr, ptr %43, align 8
  tail call void @wmem_free(ptr noundef %42, ptr noundef %44)
  %45 = load ptr, ptr %35, align 8
  %46 = getelementptr inbounds nuw i8, ptr %35, i64 56
  %47 = load ptr, ptr %46, align 8
  tail call void @wmem_free(ptr noundef %45, ptr noundef %47)
  %48 = load ptr, ptr %35, align 8
  tail call void @wmem_free(ptr noundef %48, ptr noundef %35)
  %49 = getelementptr inbounds nuw i8, ptr %1, i64 72
  %50 = load ptr, ptr %49, align 8
  tail call void @wmem_free(ptr noundef %0, ptr noundef %50)
  %51 = getelementptr inbounds nuw i8, ptr %1, i64 80
  %52 = load ptr, ptr %51, align 8
  tail call void @wmem_free(ptr noundef %0, ptr noundef %52)
  %53 = getelementptr inbounds nuw i8, ptr %1, i64 104
  %54 = load ptr, ptr %53, align 8
  tail call void @wmem_free(ptr noundef %0, ptr noundef %54)
  %55 = getelementptr inbounds nuw i8, ptr %1, i64 112
  %56 = load ptr, ptr %55, align 8
  tail call void @wmem_free(ptr noundef %0, ptr noundef %56)
  tail call void @wmem_free(ptr noundef %0, ptr noundef nonnull %1)
  br label %57

57:                                               ; preds = %2, %3
  ret void
}